target datalayout = "e-m:e-p270:32:32-p271:32:32-p272:64:64-i64:64-i128:128-f80:128-n8:16:32:64-S128"
target triple = "x86_64-pc-linux-gnu"

%"class.YAML::EmitterState" = type { i8, %"class.std::__cxx11::basic_string", %"class.YAML::Setting", %"class.YAML::Setting", %"class.YAML::Setting", %"class.YAML::Setting", %"class.YAML::Setting", %"class.YAML::Setting", %"class.YAML::Setting", %"class.YAML::Setting.0", %"class.YAML::Setting.0", %"class.YAML::Setting.0", %"class.YAML::Setting", %"class.YAML::Setting", %"class.YAML::Setting", %"class.YAML::Setting.0", %"class.YAML::Setting.0", %"class.YAML::SettingChanges", %"class.YAML::SettingChanges", %"class.std::vector.4", i64, i8, i8, i8, i8, i64 }
%"class.std::__cxx11::basic_string" = type { %"struct.std::__cxx11::basic_string<char>::_Alloc_hider", i64, %union.anon }
%"struct.std::__cxx11::basic_string<char>::_Alloc_hider" = type { ptr }
%union.anon = type { i64, [8 x i8] }
%"class.YAML::Setting" = type { i32 }
%"class.YAML::Setting.0" = type { i64 }
%"class.YAML::SettingChanges" = type { %"class.std::vector" }
%"class.std::vector" = type { %"struct.std::_Vector_base" }
%"struct.std::_Vector_base" = type { %"struct.std::_Vector_base<std::unique_ptr<YAML::SettingChangeBase>, std::allocator<std::unique_ptr<YAML::SettingChangeBase>>>::_Vector_impl" }
%"struct.std::_Vector_base<std::unique_ptr<YAML::SettingChangeBase>, std::allocator<std::unique_ptr<YAML::SettingChangeBase>>>::_Vector_impl" = type { %"struct.std::_Vector_base<std::unique_ptr<YAML::SettingChangeBase>, std::allocator<std::unique_ptr<YAML::SettingChangeBase>>>::_Vector_impl_data" }
%"struct.std::_Vector_base<std::unique_ptr<YAML::SettingChangeBase>, std::allocator<std::unique_ptr<YAML::SettingChangeBase>>>::_Vector_impl_data" = type { ptr, ptr, ptr }
%"class.std::vector.4" = type { %"struct.std::_Vector_base.5" }
%"struct.std::_Vector_base.5" = type { %"struct.std::_Vector_base<std::unique_ptr<YAML::EmitterState::Group>, std::allocator<std::unique_ptr<YAML::EmitterState::Group>>>::_Vector_impl" }
%"struct.std::_Vector_base<std::unique_ptr<YAML::EmitterState::Group>, std::allocator<std::unique_ptr<YAML::EmitterState::Group>>>::_Vector_impl" = type { %"struct.std::_Vector_base<std::unique_ptr<YAML::EmitterState::Group>, std::allocator<std::unique_ptr<YAML::EmitterState::Group>>>::_Vector_impl_data" }
%"struct.std::_Vector_base<std::unique_ptr<YAML::EmitterState::Group>, std::allocator<std::unique_ptr<YAML::EmitterState::Group>>>::_Vector_impl_data" = type { ptr, ptr, ptr }

; Function Attrs: mustprogress uwtable
define noundef zeroext i1 @_ZN4YAML12EmitterState15SetStringFormatENS_13EMITTER_MANIPENS_8FmtScope5valueE(ptr noundef nonnull align 8 dereferenceable(224) %0, i32 noundef %1, i32 noundef %2) #0 align 2 {
  %4 = alloca i1, align 1
  %5 = alloca ptr, align 8
  %6 = alloca i32, align 4
  %7 = alloca i32, align 4
  store ptr %0, ptr %5, align 8, !tbaa !3
  store i32 %1, ptr %6, align 4, !tbaa !29
  store i32 %2, ptr %7, align 4, !tbaa !54
  %8 = load ptr, ptr %5, align 8
  %9 = load i32, ptr %6, align 4, !tbaa !29
  switch i32 %9, label %14 [
    i32 0, label %10
    i32 6, label %10
    i32 7, label %10
    i32 8, label %10
  ]

10:                                               ; preds = %3, %3, %3, %3
  %11 = getelementptr inbounds nuw %"class.YAML::EmitterState", ptr %8, i32 0, i32 3
  %12 = load i32, ptr %6, align 4, !tbaa !29
  %13 = load i32, ptr %7, align 4, !tbaa !54
  call void @_ZN4YAML12EmitterState4_SetINS_13EMITTER_MANIPEEEvRNS_7SettingIT_EES4_NS_8FmtScope5valueE(ptr noundef nonnull align 8 dereferenceable(224) %8, ptr noundef nonnull align 4 dereferenceable(4) %11, i32 noundef %12, i32 noundef %13)
  store i1 true, ptr %4, align 1
  br label %15

14:                                               ; preds = %3
  store i1 false, ptr %4, align 1
  br label %15

15:                                               ; preds = %14, %10
  %16 = load i1, ptr %4, align 1
  ret i1 %16
}